target datalayout = "e-m:e-p270:32:32-p271:32:32-p272:64:64-i64:64-i128:128-f80:128-n8:16:32:64-S128"
target triple = "x86_64-pc-linux-gnu"

%struct.quicklist = type { ptr, ptr, i64, i64, i64, [0 x %struct.quicklistBookmark] }
%struct.quicklistBookmark = type { ptr, ptr }
%struct.quicklistNode = type { ptr, ptr, ptr, i64, i32 }
%struct.quicklistEntry = type { ptr, ptr, ptr, ptr, i64, i64, i32 }
%struct.quicklistIter = type { ptr, ptr, ptr, i64, i32 }

; Function Attrs: nounwind uwtable
define dso_local i32 @quicklistDelIndex(ptr noundef %0, ptr noundef %1, ptr noundef %2) #0 {
  %4 = alloca i32, align 4
  %5 = alloca ptr, align 8
  %6 = alloca ptr, align 8
  %7 = alloca ptr, align 8
  %8 = alloca i32, align 4
  %9 = alloca i32, align 4
  store ptr %0, ptr %5, align 8, !tbaa !9
  store ptr %1, ptr %6, align 8, !tbaa !12
  store ptr %2, ptr %7, align 8, !tbaa !40
  call void @llvm.lifetime.start.p0(i64 4, ptr %8) #10
  store i32 0, ptr %8, align 4, !tbaa !14
  %10 = load ptr, ptr %6, align 8, !tbaa !12
  %11 = getelementptr inbounds nuw %struct.quicklistNode, ptr %10, i32 0, i32 4
  %12 = load i32, ptr %11, align 8
  %13 = lshr i32 %12, 18
  %14 = and i32 %13, 3
  %15 = icmp eq i32 %14, 1
  %16 = xor i1 %15, true
  %17 = xor i1 %16, true
  %18 = zext i1 %17 to i32
  %19 = sext i32 %18 to i64
  %20 = call i64 @llvm.expect.i64(i64 %19, i64 0)
  %21 = icmp ne i64 %20, 0
  br i1 %21, label %22, label %25

22:                                               ; preds = %3
  %23 = load ptr, ptr %5, align 8, !tbaa !9
  %24 = load ptr, ptr %6, align 8, !tbaa !12
  call void @__quicklistDelNode(ptr noundef %23, ptr noundef %24)
  store i32 1, ptr %4, align 4
  store i32 1, ptr %9, align 4
  br label %70

25:                                               ; preds = %3
  %26 = load ptr, ptr %6, align 8, !tbaa !12
  %27 = getelementptr inbounds nuw %struct.quicklistNode, ptr %26, i32 0, i32 2
  %28 = load ptr, ptr %27, align 8, !tbaa !16
  %29 = load ptr, ptr %7, align 8, !tbaa !40
  %30 = load ptr, ptr %29, align 8, !tbaa !35
  %31 = load ptr, ptr %7, align 8, !tbaa !40
  %32 = call ptr @lpDelete(ptr noundef %28, ptr noundef %30, ptr noundef %31)
  %33 = load ptr, ptr %6, align 8, !tbaa !12
  %34 = getelementptr inbounds nuw %struct.quicklistNode, ptr %33, i32 0, i32 2
  store ptr %32, ptr %34, align 8, !tbaa !16
  %35 = load ptr, ptr %6, align 8, !tbaa !12
  %36 = getelementptr inbounds nuw %struct.quicklistNode, ptr %35, i32 0, i32 4
  %37 = load i32, ptr %36, align 8
  %38 = and i32 %37, 65535
  %39 = add i32 %38, -1
  %40 = load i32, ptr %36, align 8
  %41 = and i32 %39, 65535
  %42 = and i32 %40, -65536
  %43 = or i32 %42, %41
  store i32 %43, ptr %36, align 8
  %44 = load ptr, ptr %6, align 8, !tbaa !12
  %45 = getelementptr inbounds nuw %struct.quicklistNode, ptr %44, i32 0, i32 4
  %46 = load i32, ptr %45, align 8
  %47 = and i32 %46, 65535
  %48 = icmp eq i32 %47, 0
  br i1 %48, label %49, label %52

49:                                               ; preds = %25
  store i32 1, ptr %8, align 4, !tbaa !14
  %50 = load ptr, ptr %5, align 8, !tbaa !9
  %51 = load ptr, ptr %6, align 8, !tbaa !12
  call void @__quicklistDelNode(ptr noundef %50, ptr noundef %51)
  br label %62

52:                                               ; preds = %25
  br label %53

53:                                               ; preds = %52
  %54 = load ptr, ptr %6, align 8, !tbaa !12
  %55 = getelementptr inbounds nuw %struct.quicklistNode, ptr %54, i32 0, i32 2
  %56 = load ptr, ptr %55, align 8, !tbaa !16
  %57 = call i64 @lpBytes(ptr noundef %56)
  %58 = load ptr, ptr %6, align 8, !tbaa !12
  %59 = getelementptr inbounds nuw %struct.quicklistNode, ptr %58, i32 0, i32 3
  store i64 %57, ptr %59, align 8, !tbaa !19
  br label %60

60:                                               ; preds = %53
  br label %61

61:                                               ; preds = %60
  br label %62

62:                                               ; preds = %61, %49
  %63 = load ptr, ptr %5, align 8, !tbaa !9
  %64 = getelementptr inbounds nuw %struct.quicklist, ptr %63, i32 0, i32 2
  %65 = load i64, ptr %64, align 8, !tbaa !5
  %66 = add i64 %65, -1
  store i64 %66, ptr %64, align 8, !tbaa !5
  %67 = load i32, ptr %8, align 4, !tbaa !14
  %68 = icmp ne i32 %67, 0
  %69 = select i1 %68, i32 1, i32 0
  store i32 %69, ptr %4, align 4
  store i32 1, ptr %9, align 4
  br label %70

70:                                               ; preds = %62, %22
  call void @llvm.lifetime.end.p0(i64 4, ptr %8) #10
  %71 = load i32, ptr %4, align 4
  ret i32 %71
}

; Function Attrs: nounwind uwtable
define dso_local void @quicklistDelEntry(ptr noundef %0, ptr noundef %1) #0 {
  %3 = alloca ptr, align 8
  %4 = alloca ptr, align 8
  %5 = alloca ptr, align 8
  %6 = alloca ptr, align 8
  %7 = alloca i32, align 4
  store ptr %0, ptr %3, align 8, !tbaa !42
  store ptr %1, ptr %4, align 8, !tbaa !44
  call void @llvm.lifetime.start.p0(i64 8, ptr %5) #10
  %8 = load ptr, ptr %4, align 8, !tbaa !44
  %9 = getelementptr inbounds nuw %struct.quicklistEntry, ptr %8, i32 0, i32 1
  %10 = load ptr, ptr %9, align 8, !tbaa !46
  %11 = getelementptr inbounds nuw %struct.quicklistNode, ptr %10, i32 0, i32 0
  %12 = load ptr, ptr %11, align 8, !tbaa !20
  store ptr %12, ptr %5, align 8, !tbaa !12
  call void @llvm.lifetime.start.p0(i64 8, ptr %6) #10
  %13 = load ptr, ptr %4, align 8, !tbaa !44
  %14 = getelementptr inbounds nuw %struct.quicklistEntry, ptr %13, i32 0, i32 1
  %15 = load ptr, ptr %14, align 8, !tbaa !46
  %16 = getelementptr inbounds nuw %struct.quicklistNode, ptr %15, i32 0, i32 1
  %17 = load ptr, ptr %16, align 8, !tbaa !21
  store ptr %17, ptr %6, align 8, !tbaa !12
  call void @llvm.lifetime.start.p0(i64 4, ptr %7) #10
  %18 = load ptr, ptr %4, align 8, !tbaa !44
  %19 = getelementptr inbounds nuw %struct.quicklistEntry, ptr %18, i32 0, i32 0
  %20 = load ptr, ptr %19, align 8, !tbaa !49
  %21 = load ptr, ptr %4, align 8, !tbaa !44
  %22 = getelementptr inbounds nuw %struct.quicklistEntry, ptr %21, i32 0, i32 1
  %23 = load ptr, ptr %22, align 8, !tbaa !46
  %24 = load ptr, ptr %4, align 8, !tbaa !44
  %25 = getelementptr inbounds nuw %struct.quicklistEntry, ptr %24, i32 0, i32 2
  %26 = call i32 @quicklistDelIndex(ptr noundef %20, ptr noundef %23, ptr noundef %25)
  store i32 %26, ptr %7, align 4, !tbaa !14
  %27 = load ptr, ptr %3, align 8, !tbaa !42
  %28 = getelementptr inbounds nuw %struct.quicklistIter, ptr %27, i32 0, i32 2
  store ptr null, ptr %28, align 8, !tbaa !50
  %29 = load i32, ptr %7, align 4, !tbaa !14
  %30 = icmp ne i32 %29, 0
  br i1 %30, label %31, label %55

31:                                               ; preds = %2
  %32 = load ptr, ptr %3, align 8, !tbaa !42
  %33 = getelementptr inbounds nuw %struct.quicklistIter, ptr %32, i32 0, i32 4
  %34 = load i32, ptr %33, align 8, !tbaa !52
  %35 = icmp eq i32 %34, 0
  br i1 %35, label %36, label %42

36:                                               ; preds = %31
  %37 = load ptr, ptr %6, align 8, !tbaa !12
  %38 = load ptr, ptr %3, align 8, !tbaa !42
  %39 = getelementptr inbounds nuw %struct.quicklistIter, ptr %38, i32 0, i32 1
  store ptr %37, ptr %39, align 8, !tbaa !53
  %40 = load ptr, ptr %3, align 8, !tbaa !42
  %41 = getelementptr inbounds nuw %struct.quicklistIter, ptr %40, i32 0, i32 3
  store i64 0, ptr %41, align 8, !tbaa !54
  br label %54

42:                                               ; preds = %31
  %43 = load ptr, ptr %3, align 8, !tbaa !42
  %44 = getelementptr inbounds nuw %struct.quicklistIter, ptr %43, i32 0, i32 4
  %45 = load i32, ptr %44, align 8, !tbaa !52
  %46 = icmp eq i32 %45, 1
  br i1 %46, label %47, label %53

47:                                               ; preds = %42
  %48 = load ptr, ptr %5, align 8, !tbaa !12
  %49 = load ptr, ptr %3, align 8, !tbaa !42
  %50 = getelementptr inbounds nuw %struct.quicklistIter, ptr %49, i32 0, i32 1
  store ptr %48, ptr %50, align 8, !tbaa !53
  %51 = load ptr, ptr %3, align 8, !tbaa !42
  %52 = getelementptr inbounds nuw %struct.quicklistIter, ptr %51, i32 0, i32 3
  store i64 -1, ptr %52, align 8, !tbaa !54
  br label %53

53:                                               ; preds = %47, %42
  br label %54

54:                                               ; preds = %53, %36
  br label %55

55:                                               ; preds = %54, %2
  call void @llvm.lifetime.end.p0(i64 4, ptr %7) #10
  call void @llvm.lifetime.end.p0(i64 8, ptr %6) #10
  call void @llvm.lifetime.end.p0(i64 8, ptr %5) #10
  ret void
}