; Function Attrs: nounwind uwtable
define dso_local void @quicklistDelEntry(ptr noundef captures(none) initializes((16, 24)) %0, ptr noundef %1) local_unnamed_addr #1 {
  %3 = getelementptr inbounds nuw i8, ptr %1, i64 8
  %4 = load ptr, ptr %3, align 8, !tbaa !33
  %5 = load ptr, ptr %4, align 8, !tbaa !23
  %6 = getelementptr inbounds nuw i8, ptr %4, i64 8
  %7 = load ptr, ptr %6, align 8, !tbaa !17
  %8 = load ptr, ptr %1, align 8, !tbaa !37
  %9 = getelementptr inbounds nuw i8, ptr %4, i64 32
  %10 = load i32, ptr %9, align 8
  %11 = and i32 %10, 786432
  %12 = icmp eq i32 %11, 262144
  br i1 %12, label %quicklistDelIndex.exit.thread, label %13, !prof !24

quicklistDelIndex.exit.thread:                    ; preds = %2
  tail call void @__quicklistDelNode(ptr noundef %8, ptr noundef nonnull %4)
  br label %34

13:                                               ; preds = %2
  %14 = getelementptr inbounds nuw i8, ptr %1, i64 16
  %15 = getelementptr inbounds nuw i8, ptr %4, i64 16
  %16 = load ptr, ptr %15, align 8, !tbaa !9
  %17 = load ptr, ptr %14, align 8, !tbaa !32
  %18 = tail call ptr @lpDelete(ptr noundef %16, ptr noundef %17, ptr noundef nonnull %14) #23
  store ptr %18, ptr %15, align 8, !tbaa !9
  %19 = load i32, ptr %9, align 8
  %20 = add i32 %19, 65535
  %21 = and i32 %20, 65535
  %22 = and i32 %19, -65536
  %23 = or disjoint i32 %21, %22
  store i32 %23, ptr %9, align 8
  %24 = and i32 %19, 65535
  %.not.i = icmp eq i32 %24, 1
  br i1 %.not.i, label %quicklistDelIndex.exit, label %quicklistDelIndex.exit.thread16

quicklistDelIndex.exit.thread16:                  ; preds = %13
  %25 = tail call i64 @lpBytes(ptr noundef %18) #23
  %26 = getelementptr inbounds nuw i8, ptr %4, i64 24
  store i64 %25, ptr %26, align 8, !tbaa !15
  %27 = getelementptr inbounds nuw i8, ptr %8, i64 16
  %28 = load i64, ptr %27, align 8, !tbaa !5
  %29 = add i64 %28, -1
  store i64 %29, ptr %27, align 8, !tbaa !5
  %30 = getelementptr inbounds nuw i8, ptr %0, i64 16
  store ptr null, ptr %30, align 8, !tbaa !38
  br label %44

quicklistDelIndex.exit:                           ; preds = %13
  tail call void @__quicklistDelNode(ptr noundef %8, ptr noundef nonnull %4)
  %31 = getelementptr inbounds nuw i8, ptr %8, i64 16
  %32 = load i64, ptr %31, align 8, !tbaa !5
  %33 = add i64 %32, -1
  store i64 %33, ptr %31, align 8, !tbaa !5
  br label %34

34:                                               ; preds = %quicklistDelIndex.exit, %quicklistDelIndex.exit.thread
  %35 = getelementptr inbounds nuw i8, ptr %0, i64 16
  store ptr null, ptr %35, align 8, !tbaa !38
  %36 = getelementptr inbounds nuw i8, ptr %0, i64 32
  %37 = load i32, ptr %36, align 8, !tbaa !40
  switch i32 %37, label %44 [
    i32 0, label %38
    i32 1, label %41
  ]

38:                                               ; preds = %34
  %39 = getelementptr inbounds nuw i8, ptr %0, i64 8
  store ptr %7, ptr %39, align 8, !tbaa !41
  %40 = getelementptr inbounds nuw i8, ptr %0, i64 24
  store i64 0, ptr %40, align 8, !tbaa !42
  br label %44

41:                                               ; preds = %34
  %42 = getelementptr inbounds nuw i8, ptr %0, i64 8
  store ptr %5, ptr %42, align 8, !tbaa !41
  %43 = getelementptr inbounds nuw i8, ptr %0, i64 24
  store i64 -1, ptr %43, align 8, !tbaa !42
  br label %44

44:                                               ; preds = %quicklistDelIndex.exit.thread16, %34, %38, %41
  ret void
}